; Function Attrs: mustprogress uwtable
define internal noundef nonnull ptr @"_ZNSt17_Function_handlerIFPN7rocksdb16CompactionFilterERKNSt7__cxx1112basic_stringIcSt11char_traitsIcESaIcEEEPSt10unique_ptrIS1_St14default_deleteIS1_EEPS8_EZNS0_4test19RegisterTestObjectsERNS0_13ObjectLibraryESA_E3$_2E9_M_invokeERKSt9_Any_dataSA_OSF_OSG_"(ptr nonnull readnone align 8 captures(none) %0, ptr noundef nonnull align 8 dereferenceable(32) %1, ptr nonnull readnone align 8 captures(none) %2, ptr nonnull readnone align 8 captures(none) %3) #7 align 2 personality ptr @__gxx_personality_v0 {
  %5 = tail call noalias noundef nonnull dereferenceable(64) ptr @_Znwm(i64 noundef 64) #37
  invoke void @_ZN7rocksdb4test25ChanglingCompactionFilterC2ERKNSt7__cxx1112basic_stringIcSt11char_traitsIcESaIcEEE(ptr noundef nonnull align 8 dereferenceable(64) %5, ptr noundef nonnull align 8 dereferenceable(32) %1)
          to label %"_ZSt10__invoke_rIPN7rocksdb16CompactionFilterERZNS0_4test19RegisterTestObjectsERNS0_13ObjectLibraryERKNSt7__cxx1112basic_stringIcSt11char_traitsIcESaIcEEEE3$_2JSD_PSt10unique_ptrIS1_St14default_deleteIS1_EEPSB_EENSt9enable_ifIX16is_invocable_r_vIT_T0_DpT1_EESN_E4typeEOSO_DpOSP_.exit" unwind label %6

6:                                                ; preds = %4
  %7 = landingpad { ptr, i32 }
          cleanup
  tail call void @_ZdlPvm(ptr noundef nonnull %5, i64 noundef 64) #33
  resume { ptr, i32 } %7

"_ZSt10__invoke_rIPN7rocksdb16CompactionFilterERZNS0_4test19RegisterTestObjectsERNS0_13ObjectLibraryERKNSt7__cxx1112basic_stringIcSt11char_traitsIcESaIcEEEE3$_2JSD_PSt10unique_ptrIS1_St14default_deleteIS1_EEPSB_EENSt9enable_ifIX16is_invocable_r_vIT_T0_DpT1_EESN_E4typeEOSO_DpOSP_.exit": ; preds = %4
  ret ptr %5
}